; Function Attrs: nounwind uwtable
define dso_local void @refspec_item_init_or_die(ptr noundef captures(none) initializes((0, 32)) %0, ptr noundef %1, i32 noundef %2) local_unnamed_addr #0 {
  %4 = tail call i32 @refspec_item_init(ptr noundef %0, ptr noundef %1, i32 noundef %2)
  %.not = icmp eq i32 %4, 0
  br i1 %.not, label %5, label %7

5:                                                ; preds = %3
  %6 = tail call fastcc ptr @_()
  tail call void (ptr, ...) @die(ptr noundef %6, ptr noundef %1) #15
  unreachable

7:                                                ; preds = %3
  ret void
}